; Function Attrs: mustprogress nounwind uwtable
define hidden i64 @_ZN22ShenandoahBarrierSetC118ensure_in_registerEP12LIRGenerator7LIR_Opr9BasicType(ptr nocapture noundef nonnull readnone align 8 dereferenceable(48) %0, ptr noundef %1, i64 %2, i8 noundef zeroext %3) local_unnamed_addr #0 align 2 {
  %5 = and i64 %2, 7
  switch i64 %5, label %6 [
    i64 5, label %20
    i64 3, label %20
  ]

6:                                                ; preds = %4
  %7 = and i64 %2, 1
  %8 = icmp eq i64 %7, 0
  br i1 %8, label %_ZNK7LIR_Opr11is_constantEv.exit, label %_ZNK7LIR_Opr11is_constantEv.exit.thread

_ZNK7LIR_Opr11is_constantEv.exit:                 ; preds = %6
  %9 = inttoptr i64 %2 to ptr
  %10 = load ptr, ptr %9, align 8
  %11 = load ptr, ptr %10, align 8
  %12 = tail call noundef ptr %11(ptr noundef nonnull align 8 dereferenceable(8) %9) #8
  %.not = icmp eq ptr %12, null
  br i1 %.not, label %_ZNK7LIR_Opr11is_constantEv.exit.thread, label %13

13:                                               ; preds = %_ZNK7LIR_Opr11is_constantEv.exit
  %14 = tail call i64 @_ZN12LIRGenerator12new_registerE9BasicType(ptr noundef nonnull align 8 dereferenceable(232) %1, i8 noundef zeroext %3) #8
  %15 = getelementptr inbounds i8, ptr %1, i64 144
  %16 = load ptr, ptr %15, align 8
  tail call void @_ZN8LIR_List4moveE7LIR_OprS0_P12CodeEmitInfo(ptr noundef nonnull align 8 dereferenceable(32) %16, i64 %2, i64 %14, ptr noundef null)
  br label %20

_ZNK7LIR_Opr11is_constantEv.exit.thread:          ; preds = %6, %_ZNK7LIR_Opr11is_constantEv.exit
  %17 = tail call i64 @_ZN12LIRGenerator12new_registerE9BasicType(ptr noundef nonnull align 8 dereferenceable(232) %1, i8 noundef zeroext 11) #8
  %18 = getelementptr inbounds i8, ptr %1, i64 144
  %19 = load ptr, ptr %18, align 8
  tail call void @_ZN8LIR_List4lealE7LIR_OprS0_13LIR_PatchCodeP12CodeEmitInfo(ptr noundef nonnull align 8 dereferenceable(32) %19, i64 %2, i64 %17, i32 noundef 0, ptr noundef null)
  br label %20

20:                                               ; preds = %4, %4, %13, %_ZNK7LIR_Opr11is_constantEv.exit.thread
  %.sroa.012.0 = phi i64 [ %2, %4 ], [ %14, %13 ], [ %17, %_ZNK7LIR_Opr11is_constantEv.exit.thread ], [ %2, %4 ]
  ret i64 %.sroa.012.0
}